ccopy_reg
_reconstructor
p0
(cargparse
Namespace
p1
c__builtin__
object
p2
Ntp3
Rp4
(dp5
S'classification_layers'
p6
(lp7
I512
aI256
asS'grad_clip'
p8
F5.0
sS'lambda_param'
p9
F0.0005
sS'learning_rate'
p10
F0.001
sS'minn'
p11
I500
sS'display'
p12
I200
sS'output_dim'
p13
I8
sS'num_epochs'
p14
I60
sS'batch_size'
p15
I32
sS'initializer'
p16
S'xavier'
p17
sS'save_every'
p18
I1
sS'decay_rate'
p19
F0.9
sS'maxn'
p20
I2048
sS'mode'
p21
S'XYZIxyz'
p22
sS'input_dim'
p23
(lp24
I2048
aI7
aI1
asS'cloud_mpl_size'
p25
(lp26
I256
aI128
asS'keep_prob'
p27
F1.0
sS'kernel_size'
p28
(lp29
(lp30
I1
aI7
aa(lp31
I1
aI1
aa(lp32
I1
aI1
aa(lp33
I1
aI1
aa(lp34
I1
aI1
aa(lp35
I1
aI1
aa(lp36
I1
aI1
aa(lp37
I1
aI1
aasS'mpl_size'
p38
(lp39
I64
aI64
aI64
aI128
aI1024
asb.