ccopy_reg
_reconstructor
p0
(cargparse
Namespace
p1
c__builtin__
object
p2
Ntp3
Rp4
(dp5
S'optimizer'
p6
S'adam'
p7
sS'normal'
p8
I00
sS'max_epoch'
p9
I251
sS'output_dim'
p10
I8
sS'batch_size'
p11
I8
sS'decay_rate'
p12
F0.7
sS'log_dir'
p13
S'log_se_ndt_segm'
p14
sS'input_dim'
p15
(lp16
I15000
aI4
aI1
asS'decay_step'
p17
I20000
sS'gpu'
p18
I0
sS'model'
p19
S'se_ndt_segm'
p20
sS'learning_rate'
p21
F0.001
sS'momentum'
p22
F0.9
sb.